target datalayout = "e-m:e-p270:32:32-p271:32:32-p272:64:64-i64:64-i128:128-f80:128-n8:16:32:64-S128"
target triple = "x86_64-pc-linux-gnu"

%class.PreferenceEditorFrame = type { %class.AccordionFrame, ptr, ptr, ptr, i32, %class.QString, ptr }
%class.AccordionFrame = type { %class.QFrame, i32, ptr }
%class.QFrame = type { %class.QWidget }
%class.QWidget = type { %class.QObject, %class.QPaintDevice.base, ptr }
%class.QObject = type { ptr, %class.QScopedPointer }
%class.QScopedPointer = type { ptr }
%class.QPaintDevice.base = type <{ ptr, i16 }>
%class.QString = type { %struct.QArrayDataPointer }
%struct.QArrayDataPointer = type { ptr, ptr, i64 }
%class.Ui_PreferenceEditorFrame = type { ptr, ptr, ptr, ptr, ptr, ptr, ptr, ptr }
%class.QByteArray = type { %struct.QArrayDataPointer.7 }
%struct.QArrayDataPointer.7 = type { ptr, ptr, i64 }
%struct.QArrayData = type { %class.QBasicAtomicInteger, %class.QFlags.13, i64 }
%class.QBasicAtomicInteger = type { %"struct.std::atomic" }
%"struct.std::atomic" = type { %"struct.std::__atomic_base" }
%"struct.std::__atomic_base" = type { i32 }
%class.QFlags.13 = type { i32 }

@_ZN10QByteArray6_emptyE = external constant i8, align 1

; Function Attrs: mustprogress nounwind uwtable
define linkonce_odr noundef i32 @_ZNSt13__atomic_baseIiEmmEv(ptr noundef nonnull align 4 dereferenceable(4) %0) #4 comdat align 2 {
  %2 = alloca ptr, align 8
  %3 = alloca i32, align 4
  %4 = alloca i32, align 4
  store ptr %0, ptr %2, align 8
  %5 = load ptr, ptr %2, align 8
  %6 = getelementptr inbounds %"struct.std::__atomic_base", ptr %5, i32 0, i32 0
  store i32 1, ptr %3, align 4
  %7 = load i32, ptr %3, align 4
  %8 = atomicrmw sub ptr %6, i32 %7 seq_cst, align 4
  %9 = sub i32 %8, %7
  store i32 %9, ptr %4, align 4
  %10 = load i32, ptr %4, align 4
  ret i32 %10
}

; Function Attrs: mustprogress nounwind uwtable
define linkonce_odr noundef zeroext i1 @_ZN10QAtomicOpsIiE5derefIiEEbRSt6atomicIT_E(ptr noundef nonnull align 4 dereferenceable(4) %0) #4 comdat align 2 {
  %2 = alloca ptr, align 8
  store ptr %0, ptr %2, align 8
  %3 = load ptr, ptr %2, align 8
  %4 = call noundef i32 @_ZNSt13__atomic_baseIiEmmEv(ptr noundef nonnull align 4 dereferenceable(4) %3) #15
  %5 = icmp ne i32 %4, 0
  ret i1 %5
}

; Function Attrs: mustprogress nounwind uwtable
define linkonce_odr noundef zeroext i1 @_ZN19QBasicAtomicIntegerIiE5derefEv(ptr noundef nonnull align 4 dereferenceable(4) %0) #4 comdat align 2 {
  %2 = alloca ptr, align 8
  store ptr %0, ptr %2, align 8
  %3 = load ptr, ptr %2, align 8
  %4 = getelementptr inbounds %class.QBasicAtomicInteger, ptr %3, i32 0, i32 0
  %5 = call noundef zeroext i1 @_ZN10QAtomicOpsIiE5derefIiEEbRSt6atomicIT_E(ptr noundef nonnull align 4 dereferenceable(4) %4) #15
  ret i1 %5
}

; Function Attrs: mustprogress nounwind uwtable
define linkonce_odr noundef zeroext i1 @_ZN10QArrayData5derefEv(ptr noundef nonnull align 8 dereferenceable(16) %0) #4 comdat align 2 {
  %2 = alloca ptr, align 8
  store ptr %0, ptr %2, align 8
  %3 = load ptr, ptr %2, align 8
  %4 = getelementptr inbounds %struct.QArrayData, ptr %3, i32 0, i32 0
  %5 = call noundef zeroext i1 @_ZN19QBasicAtomicIntegerIiE5derefEv(ptr noundef nonnull align 4 dereferenceable(4) %4) #15
  ret i1 %5
}

; Function Attrs: mustprogress nounwind uwtable
define linkonce_odr void @_ZN15QTypedArrayDataIcE10deallocateEP10QArrayData(ptr noundef %0) #4 comdat align 2 {
  %2 = alloca ptr, align 8
  store ptr %0, ptr %2, align 8
  %3 = load ptr, ptr %2, align 8
  call void @_ZN10QArrayData10deallocateEPS_xx(ptr noundef %3, i64 noundef 1, i64 noundef 8) #15
  ret void
}

; Function Attrs: mustprogress nounwind uwtable
define linkonce_odr void @_ZN9QtPrivate12QPodArrayOpsIcE10destroyAllEv(ptr noundef nonnull align 8 dereferenceable(24) %0) #4 comdat align 2 {
  %2 = alloca ptr, align 8
  store ptr %0, ptr %2, align 8
  ret void
}

; Function Attrs: mustprogress nounwind uwtable
define linkonce_odr noundef ptr @_ZN17QArrayDataPointerIcEptEv(ptr noundef nonnull align 8 dereferenceable(24) %0) #4 comdat align 2 {
  %2 = alloca ptr, align 8
  store ptr %0, ptr %2, align 8
  %3 = load ptr, ptr %2, align 8
  ret ptr %3
}

; Function Attrs: mustprogress nounwind uwtable
define linkonce_odr noundef zeroext i1 @_ZN17QArrayDataPointerIcE5derefEv(ptr noundef nonnull align 8 dereferenceable(24) %0) #4 comdat align 2 {
  %2 = alloca ptr, align 8
  store ptr %0, ptr %2, align 8
  %3 = load ptr, ptr %2, align 8
  %4 = getelementptr inbounds %struct.QArrayDataPointer.7, ptr %3, i32 0, i32 0
  %5 = load ptr, ptr %4, align 8
  %6 = icmp ne ptr %5, null
  br i1 %6, label %7, label %11

7:                                                ; preds = %1
  %8 = getelementptr inbounds %struct.QArrayDataPointer.7, ptr %3, i32 0, i32 0
  %9 = load ptr, ptr %8, align 8
  %10 = call noundef zeroext i1 @_ZN10QArrayData5derefEv(ptr noundef nonnull align 8 dereferenceable(16) %9) #15
  br label %11

11:                                               ; preds = %7, %1
  %12 = phi i1 [ true, %1 ], [ %10, %7 ]
  ret i1 %12
}

; Function Attrs: mustprogress nounwind uwtable
define linkonce_odr noundef ptr @_ZNK17QArrayDataPointerIcE4dataEv(ptr noundef nonnull align 8 dereferenceable(24) %0) #4 comdat align 2 {
  %2 = alloca ptr, align 8
  store ptr %0, ptr %2, align 8
  %3 = load ptr, ptr %2, align 8
  %4 = getelementptr inbounds %struct.QArrayDataPointer.7, ptr %3, i32 0, i32 1
  %5 = load ptr, ptr %4, align 8
  ret ptr %5
}

; Function Attrs: mustprogress nounwind uwtable
define linkonce_odr void @_ZN17QArrayDataPointerIcED2Ev(ptr noundef nonnull align 8 dereferenceable(24) %0) unnamed_addr #4 comdat align 2 {
  %2 = alloca ptr, align 8
  store ptr %0, ptr %2, align 8
  %3 = load ptr, ptr %2, align 8
  %4 = call noundef zeroext i1 @_ZN17QArrayDataPointerIcE5derefEv(ptr noundef nonnull align 8 dereferenceable(24) %3) #15
  br i1 %4, label %9, label %5

5:                                                ; preds = %1
  %6 = call noundef ptr @_ZN17QArrayDataPointerIcEptEv(ptr noundef nonnull align 8 dereferenceable(24) %3) #15
  call void @_ZN9QtPrivate12QPodArrayOpsIcE10destroyAllEv(ptr noundef nonnull align 8 dereferenceable(24) %6) #15
  %7 = getelementptr inbounds %struct.QArrayDataPointer.7, ptr %3, i32 0, i32 0
  %8 = load ptr, ptr %7, align 8
  call void @_ZN15QTypedArrayDataIcE10deallocateEP10QArrayData(ptr noundef %8) #15
  br label %9

9:                                                ; preds = %5, %1
  ret void
}

; Function Attrs: mustprogress nounwind uwtable
define linkonce_odr noundef ptr @_ZNK10QByteArray4dataEv(ptr noundef nonnull align 8 dereferenceable(24) %0) #4 comdat align 2 {
  %2 = alloca ptr, align 8
  store ptr %0, ptr %2, align 8
  %3 = load ptr, ptr %2, align 8
  %4 = getelementptr inbounds %class.QByteArray, ptr %3, i32 0, i32 0
  %5 = call noundef ptr @_ZNK17QArrayDataPointerIcE4dataEv(ptr noundef nonnull align 8 dereferenceable(24) %4) #15
  %6 = icmp ne ptr %5, null
  br i1 %6, label %7, label %10

7:                                                ; preds = %1
  %8 = getelementptr inbounds %class.QByteArray, ptr %3, i32 0, i32 0
  %9 = call noundef ptr @_ZNK17QArrayDataPointerIcE4dataEv(ptr noundef nonnull align 8 dereferenceable(24) %8) #15
  br label %11

10:                                               ; preds = %1
  br label %11

11:                                               ; preds = %10, %7
  %12 = phi ptr [ %9, %7 ], [ @_ZN10QByteArray6_emptyE, %10 ]
  ret ptr %12
}

; Function Attrs: mustprogress nounwind uwtable
define linkonce_odr noundef zeroext i1 @_ZNK7QString7isEmptyEv(ptr noundef nonnull align 8 dereferenceable(24) %0) #4 comdat align 2 {
  %2 = alloca ptr, align 8
  store ptr %0, ptr %2, align 8
  %3 = load ptr, ptr %2, align 8
  %4 = getelementptr inbounds %class.QString, ptr %3, i32 0, i32 0
  %5 = getelementptr inbounds %struct.QArrayDataPointer, ptr %4, i32 0, i32 2
  %6 = load i64, ptr %5, align 8
  %7 = icmp eq i64 %6, 0
  ret i1 %7
}

; Function Attrs: mustprogress nounwind uwtable
define linkonce_odr void @_ZN10QByteArrayD2Ev(ptr noundef nonnull align 8 dereferenceable(24) %0) unnamed_addr #4 comdat align 2 {
  %2 = alloca ptr, align 8
  store ptr %0, ptr %2, align 8
  %3 = load ptr, ptr %2, align 8
  %4 = getelementptr inbounds %class.QByteArray, ptr %3, i32 0, i32 0
  call void @_ZN17QArrayDataPointerIcED2Ev(ptr noundef nonnull align 8 dereferenceable(24) %4) #15
  ret void
}

; Function Attrs: mustprogress uwtable
define linkonce_odr noundef ptr @_ZNK10QByteArray9constDataEv(ptr noundef nonnull align 8 dereferenceable(24) %0) #0 comdat align 2 {
  %2 = alloca ptr, align 8
  store ptr %0, ptr %2, align 8
  %3 = load ptr, ptr %2, align 8
  %4 = call noundef ptr @_ZNK10QByteArray4dataEv(ptr noundef nonnull align 8 dereferenceable(24) %3)
  ret ptr %4
}

; Function Attrs: mustprogress uwtable
define linkonce_odr void @_ZNKR7QString6toUtf8Ev(ptr dead_on_unwind noalias writable sret(%class.QByteArray) align 8 %0, ptr noundef nonnull align 8 dereferenceable(24) %1) #0 comdat align 2 {
  %3 = alloca ptr, align 8
  %4 = alloca ptr, align 8
  store ptr %0, ptr %3, align 8
  store ptr %1, ptr %4, align 8
  %5 = load ptr, ptr %4, align 8
  call void @_ZN7QString13toUtf8_helperERKS_(ptr dead_on_unwind writable sret(%class.QByteArray) align 8 %0, ptr noundef nonnull align 8 dereferenceable(24) %5)
  ret void
}

; Function Attrs: mustprogress uwtable
define void @_ZN21PreferenceEditorFrame23rangeLineEditTextEditedERK7QString(ptr noundef nonnull align 8 dereferenceable(120) %0, ptr noundef nonnull align 8 dereferenceable(24) %1) #0 align 2 personality ptr @__gxx_personality_v0 {
  %3 = alloca ptr, align 8
  %4 = alloca ptr, align 8
  %5 = alloca ptr, align 8
  %6 = alloca i32, align 4
  %7 = alloca %class.QByteArray, align 8
  %8 = alloca ptr, align 8
  %9 = alloca i32, align 4
  store ptr %0, ptr %3, align 8
  store ptr %1, ptr %4, align 8
  %10 = load ptr, ptr %3, align 8
  store ptr null, ptr %5, align 8
  %11 = load ptr, ptr %4, align 8
  call void @_ZNKR7QString6toUtf8Ev(ptr dead_on_unwind writable sret(%class.QByteArray) align 8 %7, ptr noundef nonnull align 8 dereferenceable(24) %11)
  %12 = invoke noundef ptr @_ZNK10QByteArray9constDataEv(ptr noundef nonnull align 8 dereferenceable(24) %7)
          to label %13 unwind label %34

13:                                               ; preds = %2
  %14 = getelementptr inbounds %class.PreferenceEditorFrame, ptr %10, i32 0, i32 3
  %15 = load ptr, ptr %14, align 8
  %16 = invoke i32 @prefs_get_max_value(ptr noundef %15)
          to label %17 unwind label %34

17:                                               ; preds = %13
  %18 = invoke i32 @range_convert_str(ptr noundef null, ptr noundef %5, ptr noundef %12, i32 noundef %16)
          to label %19 unwind label %34

19:                                               ; preds = %17
  call void @_ZN10QByteArrayD2Ev(ptr noundef nonnull align 8 dereferenceable(24) %7) #15
  store i32 %18, ptr %6, align 4
  %20 = getelementptr inbounds %class.PreferenceEditorFrame, ptr %10, i32 0, i32 6
  %21 = load ptr, ptr %20, align 8
  call void @wmem_free(ptr noundef null, ptr noundef %21)
  %22 = load ptr, ptr %5, align 8
  %23 = getelementptr inbounds %class.PreferenceEditorFrame, ptr %10, i32 0, i32 6
  store ptr %22, ptr %23, align 8
  %24 = load i32, ptr %6, align 4
  %25 = icmp eq i32 %24, 0
  br i1 %25, label %26, label %44

26:                                               ; preds = %19
  %27 = load ptr, ptr %4, align 8
  %28 = call noundef zeroext i1 @_ZNK7QString7isEmptyEv(ptr noundef nonnull align 8 dereferenceable(24) %27)
  br i1 %28, label %29, label %38

29:                                               ; preds = %26
  %30 = getelementptr inbounds %class.PreferenceEditorFrame, ptr %10, i32 0, i32 1
  %31 = load ptr, ptr %30, align 8
  %32 = getelementptr inbounds %class.Ui_PreferenceEditorFrame, ptr %31, i32 0, i32 4
  %33 = load ptr, ptr %32, align 8
  call void @_ZN14SyntaxLineEdit14setSyntaxStateENS_11SyntaxStateE(ptr noundef nonnull align 8 dereferenceable(185) %33, i32 noundef 0)
  br label %43

34:                                               ; preds = %17, %13, %2
  %35 = landingpad { ptr, i32 }
          cleanup
  %36 = extractvalue { ptr, i32 } %35, 0
  store ptr %36, ptr %8, align 8
  %37 = extractvalue { ptr, i32 } %35, 1
  store i32 %37, ptr %9, align 4
  call void @_ZN10QByteArrayD2Ev(ptr noundef nonnull align 8 dereferenceable(24) %7) #15
  br label %57

38:                                               ; preds = %26
  %39 = getelementptr inbounds %class.PreferenceEditorFrame, ptr %10, i32 0, i32 1
  %40 = load ptr, ptr %39, align 8
  %41 = getelementptr inbounds %class.Ui_PreferenceEditorFrame, ptr %40, i32 0, i32 4
  %42 = load ptr, ptr %41, align 8
  call void @_ZN14SyntaxLineEdit14setSyntaxStateENS_11SyntaxStateE(ptr noundef nonnull align 8 dereferenceable(185) %42, i32 noundef 4)
  br label %43

43:                                               ; preds = %38, %29
  br label %49

44:                                               ; preds = %19
  %45 = getelementptr inbounds %class.PreferenceEditorFrame, ptr %10, i32 0, i32 1
  %46 = load ptr, ptr %45, align 8
  %47 = getelementptr inbounds %class.Ui_PreferenceEditorFrame, ptr %46, i32 0, i32 4
  %48 = load ptr, ptr %47, align 8
  call void @_ZN14SyntaxLineEdit14setSyntaxStateENS_11SyntaxStateE(ptr noundef nonnull align 8 dereferenceable(185) %48, i32 noundef 2)
  br label %49

49:                                               ; preds = %44, %43
  %50 = getelementptr inbounds %class.PreferenceEditorFrame, ptr %10, i32 0, i32 1
  %51 = load ptr, ptr %50, align 8
  %52 = getelementptr inbounds %class.Ui_PreferenceEditorFrame, ptr %51, i32 0, i32 7
  %53 = load ptr, ptr %52, align 8
  %54 = call noundef ptr @_ZNK16QDialogButtonBox6buttonENS_14StandardButtonE(ptr noundef nonnull align 8 dereferenceable(40) %53, i32 noundef 1024)
  %55 = load i32, ptr %6, align 4
  %56 = icmp eq i32 %55, 0
  call void @_ZN7QWidget10setEnabledEb(ptr noundef nonnull align 8 dereferenceable(40) %54, i1 noundef zeroext %56)
  ret void

57:                                               ; preds = %34
  %58 = load ptr, ptr %8, align 8
  %59 = load i32, ptr %9, align 4
  %60 = insertvalue { ptr, i32 } poison, ptr %58, 0
  %61 = insertvalue { ptr, i32 } %60, i32 %59, 1
  resume { ptr, i32 } %61
}