; Function Attrs: mustprogress uwtable
define void @_ZN21PreferenceEditorFrame23rangeLineEditTextEditedERK7QString(ptr nocapture noundef nonnull align 8 dereferenceable(120) %0, ptr noundef nonnull align 8 dereferenceable(24) %1) #0 align 2 personality ptr @__gxx_personality_v0 {
  %3 = alloca ptr, align 8
  %4 = alloca %class.QByteArray, align 8
  store ptr null, ptr %3, align 8
  call void @_ZN7QString13toUtf8_helperERKS_(ptr dead_on_unwind nonnull writable sret(%class.QByteArray) align 8 %4, ptr noundef nonnull align 8 dereferenceable(24) %1)
  %5 = getelementptr inbounds i8, ptr %4, i64 8
  %6 = load ptr, ptr %5, align 8
  %7 = getelementptr inbounds i8, ptr %0, i64 72
  %8 = load ptr, ptr %7, align 8
  %9 = invoke i32 @prefs_get_max_value(ptr noundef %8)
          to label %10 unwind label %30

10:                                               ; preds = %2
  %.not.i.i = icmp eq ptr %6, null
  %spec.select.i.i = select i1 %.not.i.i, ptr @_ZN10QByteArray6_emptyE, ptr %6
  %11 = invoke i32 @range_convert_str(ptr noundef null, ptr noundef nonnull %3, ptr noundef nonnull %spec.select.i.i, i32 noundef %9)
          to label %12 unwind label %30

12:                                               ; preds = %10
  %13 = load ptr, ptr %4, align 8
  %.not.i.i.i = icmp eq ptr %13, null
  br i1 %.not.i.i.i, label %_ZN10QByteArrayD2Ev.exit, label %_ZN17QArrayDataPointerIcE5derefEv.exit.i.i

_ZN17QArrayDataPointerIcE5derefEv.exit.i.i:       ; preds = %12
  %14 = atomicrmw sub ptr %13, i32 1 seq_cst, align 4
  %.not.i.i6 = icmp eq i32 %14, 1
  br i1 %.not.i.i6, label %15, label %_ZN10QByteArrayD2Ev.exit

15:                                               ; preds = %_ZN17QArrayDataPointerIcE5derefEv.exit.i.i
  %16 = load ptr, ptr %4, align 8
  call void @_ZN10QArrayData10deallocateEPS_xx(ptr noundef %16, i64 noundef 1, i64 noundef 8) #15
  br label %_ZN10QByteArrayD2Ev.exit

_ZN10QByteArrayD2Ev.exit:                         ; preds = %12, %_ZN17QArrayDataPointerIcE5derefEv.exit.i.i, %15
  %17 = getelementptr inbounds i8, ptr %0, i64 112
  %18 = load ptr, ptr %17, align 8
  call void @wmem_free(ptr noundef null, ptr noundef %18)
  %19 = load ptr, ptr %3, align 8
  store ptr %19, ptr %17, align 8
  %20 = icmp eq i32 %11, 0
  br i1 %20, label %21, label %37

21:                                               ; preds = %_ZN10QByteArrayD2Ev.exit
  %22 = getelementptr inbounds i8, ptr %1, i64 16
  %23 = load i64, ptr %22, align 8
  %24 = icmp eq i64 %23, 0
  %25 = getelementptr inbounds i8, ptr %0, i64 56
  %26 = load ptr, ptr %25, align 8
  %27 = getelementptr inbounds i8, ptr %26, i64 32
  %28 = load ptr, ptr %27, align 8
  br i1 %24, label %29, label %36

29:                                               ; preds = %21
  call void @_ZN14SyntaxLineEdit14setSyntaxStateENS_11SyntaxStateE(ptr noundef nonnull align 8 dereferenceable(185) %28, i32 noundef 0)
  br label %42

30:                                               ; preds = %10, %2
  %31 = landingpad { ptr, i32 }
          cleanup
  %32 = load ptr, ptr %4, align 8
  %.not.i.i.i7 = icmp eq ptr %32, null
  br i1 %.not.i.i.i7, label %_ZN10QByteArrayD2Ev.exit10, label %_ZN17QArrayDataPointerIcE5derefEv.exit.i.i8

_ZN17QArrayDataPointerIcE5derefEv.exit.i.i8:      ; preds = %30
  %33 = atomicrmw sub ptr %32, i32 1 seq_cst, align 4
  %.not.i.i9 = icmp eq i32 %33, 1
  br i1 %.not.i.i9, label %34, label %_ZN10QByteArrayD2Ev.exit10

34:                                               ; preds = %_ZN17QArrayDataPointerIcE5derefEv.exit.i.i8
  %35 = load ptr, ptr %4, align 8
  call void @_ZN10QArrayData10deallocateEPS_xx(ptr noundef %35, i64 noundef 1, i64 noundef 8) #15
  br label %_ZN10QByteArrayD2Ev.exit10

_ZN10QByteArrayD2Ev.exit10:                       ; preds = %30, %_ZN17QArrayDataPointerIcE5derefEv.exit.i.i8, %34
  resume { ptr, i32 } %31

36:                                               ; preds = %21
  call void @_ZN14SyntaxLineEdit14setSyntaxStateENS_11SyntaxStateE(ptr noundef nonnull align 8 dereferenceable(185) %28, i32 noundef 4)
  br label %42

37:                                               ; preds = %_ZN10QByteArrayD2Ev.exit
  %38 = getelementptr inbounds i8, ptr %0, i64 56
  %39 = load ptr, ptr %38, align 8
  %40 = getelementptr inbounds i8, ptr %39, i64 32
  %41 = load ptr, ptr %40, align 8
  call void @_ZN14SyntaxLineEdit14setSyntaxStateENS_11SyntaxStateE(ptr noundef nonnull align 8 dereferenceable(185) %41, i32 noundef 2)
  br label %42

42:                                               ; preds = %29, %36, %37
  %43 = getelementptr inbounds i8, ptr %0, i64 56
  %44 = load ptr, ptr %43, align 8
  %45 = getelementptr inbounds i8, ptr %44, i64 56
  %46 = load ptr, ptr %45, align 8
  %47 = call noundef ptr @_ZNK16QDialogButtonBox6buttonENS_14StandardButtonE(ptr noundef nonnull align 8 dereferenceable(40) %46, i32 noundef 1024)
  call void @_ZN7QWidget10setEnabledEb(ptr noundef nonnull align 8 dereferenceable(40) %47, i1 noundef zeroext %20)
  ret void
}